; Function Attrs: mustprogress nounwind uwtable
define internal void @_ZN12_GLOBAL__N_128theory_aware_branching_queueD2Ev(ptr nocapture noundef nonnull align 8 dereferenceable(128) %this) unnamed_addr #5 align 2 personality ptr @__gxx_personality_v0 {
entry:
  store ptr getelementptr inbounds ({ [20 x ptr] }, ptr @_ZTVN12_GLOBAL__N_128theory_aware_branching_queueE, i64 0, i32 0, i64 2), ptr %this, align 8
  %m_theory_var_phase = getelementptr inbounds i8, ptr %this, i64 104
  %0 = load ptr, ptr %m_theory_var_phase, align 8
  %cmp.i.i.i.i.i = icmp eq ptr %0, null
  br i1 %cmp.i.i.i.i.i, label %_ZN3mapIj5lbool8int_hash10default_eqIjEED2Ev.exit, label %for.cond.preheader.i.i.i.i.i

for.cond.preheader.i.i.i.i.i:                     ; preds = %entry
  invoke void @_ZN6memory10deallocateEPv(ptr noundef nonnull %0)
          to label %_ZN3mapIj5lbool8int_hash10default_eqIjEED2Ev.exit unwind label %terminate.lpad.i.i.i

terminate.lpad.i.i.i:                             ; preds = %for.cond.preheader.i.i.i.i.i
  %1 = landingpad { ptr, i32 }
          catch ptr null
  %2 = extractvalue { ptr, i32 } %1, 0
  tail call void @__clang_call_terminate(ptr %2) #23
  unreachable

_ZN3mapIj5lbool8int_hash10default_eqIjEED2Ev.exit: ; preds = %entry, %for.cond.preheader.i.i.i.i.i
  store ptr null, ptr %m_theory_var_phase, align 8
  %m_theory_vars = getelementptr inbounds i8, ptr %this, i64 80
  %3 = load ptr, ptr %m_theory_vars, align 8
  %cmp.i.i.i.i = icmp eq ptr %3, null
  br i1 %cmp.i.i.i.i, label %_ZN13int_hashtableI8int_hash10default_eqIjEED2Ev.exit, label %for.cond.preheader.i.i.i.i

for.cond.preheader.i.i.i.i:                       ; preds = %_ZN3mapIj5lbool8int_hash10default_eqIjEED2Ev.exit
  invoke void @_ZN6memory10deallocateEPv(ptr noundef nonnull %3)
          to label %_ZN13int_hashtableI8int_hash10default_eqIjEED2Ev.exit unwind label %terminate.lpad.i.i

terminate.lpad.i.i:                               ; preds = %for.cond.preheader.i.i.i.i
  %4 = landingpad { ptr, i32 }
          catch ptr null
  %5 = extractvalue { ptr, i32 } %4, 0
  tail call void @__clang_call_terminate(ptr %5) #23
  unreachable

_ZN13int_hashtableI8int_hash10default_eqIjEED2Ev.exit: ; preds = %_ZN3mapIj5lbool8int_hash10default_eqIjEED2Ev.exit, %for.cond.preheader.i.i.i.i
  store ptr null, ptr %m_theory_vars, align 8
  %m_value2indices.i = getelementptr inbounds i8, ptr %this, i64 72
  %6 = load ptr, ptr %m_value2indices.i, align 8
  %tobool.not.i.i.i.i = icmp eq ptr %6, null
  br i1 %tobool.not.i.i.i.i, label %_ZN7svectorIijED2Ev.exit.i, label %if.then.i.i.i.i

if.then.i.i.i.i:                                  ; preds = %_ZN13int_hashtableI8int_hash10default_eqIjEED2Ev.exit
  %add.ptr.i.i.i.i.i = getelementptr inbounds i8, ptr %6, i64 -8
  invoke void @_ZN6memory10deallocateEPv(ptr noundef nonnull %add.ptr.i.i.i.i.i)
          to label %_ZN7svectorIijED2Ev.exit.i unwind label %terminate.lpad.i.i.i1

terminate.lpad.i.i.i1:                            ; preds = %if.then.i.i.i.i
  %7 = landingpad { ptr, i32 }
          catch ptr null
  %8 = extractvalue { ptr, i32 } %7, 0
  tail call void @__clang_call_terminate(ptr %8) #23
  unreachable

_ZN7svectorIijED2Ev.exit.i:                       ; preds = %if.then.i.i.i.i, %_ZN13int_hashtableI8int_hash10default_eqIjEED2Ev.exit
  %m_values.i = getelementptr inbounds i8, ptr %this, i64 64
  %9 = load ptr, ptr %m_values.i, align 8
  %tobool.not.i.i.i1.i = icmp eq ptr %9, null
  br i1 %tobool.not.i.i.i1.i, label %_ZN4heapIN12_GLOBAL__N_119theory_aware_act_ltEED2Ev.exit, label %if.then.i.i.i2.i

if.then.i.i.i2.i:                                 ; preds = %_ZN7svectorIijED2Ev.exit.i
  %add.ptr.i.i.i.i3.i = getelementptr inbounds i8, ptr %9, i64 -8
  invoke void @_ZN6memory10deallocateEPv(ptr noundef nonnull %add.ptr.i.i.i.i3.i)
          to label %_ZN4heapIN12_GLOBAL__N_119theory_aware_act_ltEED2Ev.exit unwind label %terminate.lpad.i.i4.i

terminate.lpad.i.i4.i:                            ; preds = %if.then.i.i.i2.i
  %10 = landingpad { ptr, i32 }
          catch ptr null
  %11 = extractvalue { ptr, i32 } %10, 0
  tail call void @__clang_call_terminate(ptr %11) #23
  unreachable

_ZN4heapIN12_GLOBAL__N_119theory_aware_act_ltEED2Ev.exit: ; preds = %_ZN7svectorIijED2Ev.exit.i, %if.then.i.i.i2.i
  %m_theory_var_priority = getelementptr inbounds i8, ptr %this, i64 24
  %12 = load ptr, ptr %m_theory_var_priority, align 8
  %cmp.i.i.i.i.i2 = icmp eq ptr %12, null
  br i1 %cmp.i.i.i.i.i2, label %_ZN3mapIjd8int_hash10default_eqIjEED2Ev.exit, label %for.cond.preheader.i.i.i.i.i3

for.cond.preheader.i.i.i.i.i3:                    ; preds = %_ZN4heapIN12_GLOBAL__N_119theory_aware_act_ltEED2Ev.exit
  invoke void @_ZN6memory10deallocateEPv(ptr noundef nonnull %12)
          to label %_ZN3mapIjd8int_hash10default_eqIjEED2Ev.exit unwind label %terminate.lpad.i.i.i4

terminate.lpad.i.i.i4:                            ; preds = %for.cond.preheader.i.i.i.i.i3
  %13 = landingpad { ptr, i32 }
          catch ptr null
  %14 = extractvalue { ptr, i32 } %13, 0
  tail call void @__clang_call_terminate(ptr %14) #23
  unreachable

_ZN3mapIjd8int_hash10default_eqIjEED2Ev.exit:     ; preds = %_ZN4heapIN12_GLOBAL__N_119theory_aware_act_ltEED2Ev.exit, %for.cond.preheader.i.i.i.i.i3
  store ptr null, ptr %m_theory_var_priority, align 8
  ret void
}